target datalayout = "e-m:e-p270:32:32-p271:32:32-p272:64:64-i64:64-i128:128-f80:128-n8:16:32:64-S128"
target triple = "x86_64-pc-linux-gnu"

%class.TransTableL = type { %class.TransTable, i32, i32, i32, i32, i32, i32, %"struct.TransTableL::pageStatsType", [8192 x %"struct.TransTableL::aggrType"], [12 x [4 x ptr]], [12 x [4 x ptr]], ptr, ptr, %"struct.TransTableL::harvestedType", i32, i32 }
%class.TransTable = type { ptr }
%"struct.TransTableL::pageStatsType" = type { i32, i32, i32, i32, i32 }
%"struct.TransTableL::aggrType" = type { [4 x i32], [4 x [4 x i32]] }
%"struct.TransTableL::harvestedType" = type { i32, [1000 x ptr] }
%"struct.TransTableL::distHashType" = type { i32, i32, [32 x %"struct.TransTableL::posSearchType"] }
%"struct.TransTableL::posSearchType" = type { ptr, i64 }
%"struct.TransTableL::winBlockType" = type { i32, i32, i32, [125 x %"struct.TransTableL::winMatchType"] }
%"struct.TransTableL::winMatchType" = type { i32, i32, i32, i32, i32, i32, i32, i32, i32, i32, i32, %struct.nodeCardsType }
%struct.nodeCardsType = type { i8, i8, i8, i8, [4 x i8] }

; Function Attrs: mustprogress nounwind uwtable
define noundef zeroext i1 @_ZN11TransTableL7HarvestEv(ptr noundef nonnull align 8 dereferenceable(664216) %0) #5 align 2 {
  %2 = alloca i1, align 1
  %3 = alloca ptr, align 8
  %4 = alloca ptr, align 8
  %5 = alloca ptr, align 8
  %6 = alloca ptr, align 8
  %7 = alloca i32, align 4
  %8 = alloca i32, align 4
  %9 = alloca i32, align 4
  %10 = alloca i32, align 4
  %11 = alloca i32, align 4
  store ptr %0, ptr %3, align 8
  %12 = load ptr, ptr %3, align 8
  %13 = getelementptr inbounds nuw %class.TransTableL, ptr %12, i32 0, i32 9
  %14 = getelementptr inbounds nuw %class.TransTableL, ptr %12, i32 0, i32 5
  %15 = load i32, ptr %14, align 8
  %16 = sext i32 %15 to i64
  %17 = getelementptr inbounds [12 x [4 x ptr]], ptr %13, i64 0, i64 %16
  %18 = getelementptr inbounds nuw %class.TransTableL, ptr %12, i32 0, i32 6
  %19 = load i32, ptr %18, align 4
  %20 = sext i32 %19 to i64
  %21 = getelementptr inbounds [4 x ptr], ptr %17, i64 0, i64 %20
  %22 = load ptr, ptr %21, align 8
  store ptr %22, ptr %4, align 8
  %23 = getelementptr inbounds nuw %class.TransTableL, ptr %12, i32 0, i32 5
  %24 = load i32, ptr %23, align 8
  store i32 %24, ptr %7, align 4
  %25 = getelementptr inbounds nuw %class.TransTableL, ptr %12, i32 0, i32 6
  %26 = load i32, ptr %25, align 4
  store i32 %26, ptr %8, align 4
  store i32 0, ptr %11, align 4
  br label %27

27:                                               ; preds = %161, %1
  store i32 0, ptr %9, align 4
  br label %28

28:                                               ; preds = %133, %27
  %29 = load i32, ptr %9, align 4
  %30 = icmp slt i32 %29, 256
  br i1 %30, label %31, label %136

31:                                               ; preds = %28
  %32 = load ptr, ptr %4, align 8
  %33 = load i32, ptr %9, align 4
  %34 = sext i32 %33 to i64
  %35 = getelementptr inbounds %"struct.TransTableL::distHashType", ptr %32, i64 %34
  store ptr %35, ptr %5, align 8
  %36 = load ptr, ptr %5, align 8
  %37 = getelementptr inbounds nuw %"struct.TransTableL::distHashType", ptr %36, i32 0, i32 0
  %38 = load i32, ptr %37, align 8
  %39 = sub nsw i32 %38, 1
  store i32 %39, ptr %10, align 4
  br label %40

40:                                               ; preds = %129, %31
  %41 = load i32, ptr %10, align 4
  %42 = icmp sge i32 %41, 0
  br i1 %42, label %43, label %132

43:                                               ; preds = %40
  %44 = load ptr, ptr %5, align 8
  %45 = getelementptr inbounds nuw %"struct.TransTableL::distHashType", ptr %44, i32 0, i32 2
  %46 = load i32, ptr %10, align 4
  %47 = sext i32 %46 to i64
  %48 = getelementptr inbounds [32 x %"struct.TransTableL::posSearchType"], ptr %45, i64 0, i64 %47
  %49 = getelementptr inbounds nuw %"struct.TransTableL::posSearchType", ptr %48, i32 0, i32 0
  %50 = load ptr, ptr %49, align 8
  store ptr %50, ptr %6, align 8
  %51 = getelementptr inbounds nuw %class.TransTableL, ptr %12, i32 0, i32 14
  %52 = load i32, ptr %51, align 8
  %53 = load ptr, ptr %6, align 8
  %54 = getelementptr inbounds nuw %"struct.TransTableL::winBlockType", ptr %53, i32 0, i32 2
  %55 = load i32, ptr %54, align 4
  %56 = sub nsw i32 %52, %55
  %57 = icmp sgt i32 %56, 10000
  br i1 %57, label %58, label %128

58:                                               ; preds = %43
  %59 = load ptr, ptr %6, align 8
  %60 = getelementptr inbounds nuw %"struct.TransTableL::winBlockType", ptr %59, i32 0, i32 0
  store i32 0, ptr %60, align 4
  %61 = load ptr, ptr %6, align 8
  %62 = getelementptr inbounds nuw %"struct.TransTableL::winBlockType", ptr %61, i32 0, i32 1
  store i32 0, ptr %62, align 4
  %63 = getelementptr inbounds nuw %class.TransTableL, ptr %12, i32 0, i32 14
  %64 = load i32, ptr %63, align 8
  %65 = load ptr, ptr %6, align 8
  %66 = getelementptr inbounds nuw %"struct.TransTableL::winBlockType", ptr %65, i32 0, i32 2
  store i32 %64, ptr %66, align 4
  %67 = load ptr, ptr %6, align 8
  %68 = getelementptr inbounds nuw %class.TransTableL, ptr %12, i32 0, i32 13
  %69 = getelementptr inbounds nuw %"struct.TransTableL::harvestedType", ptr %68, i32 0, i32 1
  %70 = load i32, ptr %11, align 4
  %71 = sext i32 %70 to i64
  %72 = getelementptr inbounds [1000 x ptr], ptr %69, i64 0, i64 %71
  store ptr %67, ptr %72, align 8
  %73 = load i32, ptr %10, align 4
  %74 = load ptr, ptr %5, align 8
  %75 = getelementptr inbounds nuw %"struct.TransTableL::distHashType", ptr %74, i32 0, i32 0
  %76 = load i32, ptr %75, align 8
  %77 = sub nsw i32 %76, 1
  %78 = icmp ne i32 %73, %77
  br i1 %78, label %79, label %93

79:                                               ; preds = %58
  %80 = load ptr, ptr %5, align 8
  %81 = getelementptr inbounds nuw %"struct.TransTableL::distHashType", ptr %80, i32 0, i32 2
  %82 = load ptr, ptr %5, align 8
  %83 = getelementptr inbounds nuw %"struct.TransTableL::distHashType", ptr %82, i32 0, i32 0
  %84 = load i32, ptr %83, align 8
  %85 = sub nsw i32 %84, 1
  %86 = sext i32 %85 to i64
  %87 = getelementptr inbounds [32 x %"struct.TransTableL::posSearchType"], ptr %81, i64 0, i64 %86
  %88 = load ptr, ptr %5, align 8
  %89 = getelementptr inbounds nuw %"struct.TransTableL::distHashType", ptr %88, i32 0, i32 2
  %90 = load i32, ptr %10, align 4
  %91 = sext i32 %90 to i64
  %92 = getelementptr inbounds [32 x %"struct.TransTableL::posSearchType"], ptr %89, i64 0, i64 %91
  call void @llvm.memcpy.p0.p0.i64(ptr align 8 %92, ptr align 8 %87, i64 16, i1 false)
  br label %93

93:                                               ; preds = %79, %58
  %94 = load ptr, ptr %5, align 8
  %95 = getelementptr inbounds nuw %"struct.TransTableL::distHashType", ptr %94, i32 0, i32 0
  %96 = load i32, ptr %95, align 8
  %97 = add nsw i32 %96, -1
  store i32 %97, ptr %95, align 8
  %98 = load ptr, ptr %5, align 8
  %99 = getelementptr inbounds nuw %"struct.TransTableL::distHashType", ptr %98, i32 0, i32 0
  %100 = load i32, ptr %99, align 8
  %101 = load ptr, ptr %5, align 8
  %102 = getelementptr inbounds nuw %"struct.TransTableL::distHashType", ptr %101, i32 0, i32 1
  store i32 %100, ptr %102, align 4
  %103 = load i32, ptr %11, align 4
  %104 = add nsw i32 %103, 1
  store i32 %104, ptr %11, align 4
  %105 = icmp eq i32 %104, 1000
  br i1 %105, label %106, label %127

106:                                              ; preds = %93
  %107 = getelementptr inbounds nuw %class.TransTableL, ptr %12, i32 0, i32 6
  %108 = load i32, ptr %107, align 4
  %109 = add nsw i32 %108, 1
  store i32 %109, ptr %107, align 4
  %110 = icmp sge i32 %109, 4
  br i1 %110, label %111, label %120

111:                                              ; preds = %106
  %112 = getelementptr inbounds nuw %class.TransTableL, ptr %12, i32 0, i32 6
  store i32 0, ptr %112, align 4
  %113 = getelementptr inbounds nuw %class.TransTableL, ptr %12, i32 0, i32 5
  %114 = load i32, ptr %113, align 8
  %115 = add nsw i32 %114, -1
  store i32 %115, ptr %113, align 8
  %116 = icmp slt i32 %115, 0
  br i1 %116, label %117, label %119

117:                                              ; preds = %111
  %118 = getelementptr inbounds nuw %class.TransTableL, ptr %12, i32 0, i32 5
  store i32 8, ptr %118, align 8
  br label %119

119:                                              ; preds = %117, %111
  br label %120

120:                                              ; preds = %119, %106
  %121 = getelementptr inbounds nuw %class.TransTableL, ptr %12, i32 0, i32 13
  %122 = getelementptr inbounds nuw %"struct.TransTableL::harvestedType", ptr %121, i32 0, i32 0
  store i32 0, ptr %122, align 8
  %123 = getelementptr inbounds nuw %class.TransTableL, ptr %12, i32 0, i32 7
  %124 = getelementptr inbounds nuw %"struct.TransTableL::pageStatsType", ptr %123, i32 0, i32 3
  %125 = load i32, ptr %124, align 4
  %126 = add nsw i32 %125, 1
  store i32 %126, ptr %124, align 4
  store i1 true, ptr %2, align 1
  br label %172

127:                                              ; preds = %93
  br label %128

128:                                              ; preds = %127, %43
  br label %129

129:                                              ; preds = %128
  %130 = load i32, ptr %10, align 4
  %131 = add nsw i32 %130, -1
  store i32 %131, ptr %10, align 4
  br label %40, !llvm.loop !21

132:                                              ; preds = %40
  br label %133

133:                                              ; preds = %132
  %134 = load i32, ptr %9, align 4
  %135 = add nsw i32 %134, 1
  store i32 %135, ptr %9, align 4
  br label %28, !llvm.loop !22

136:                                              ; preds = %28
  %137 = getelementptr inbounds nuw %class.TransTableL, ptr %12, i32 0, i32 6
  %138 = load i32, ptr %137, align 4
  %139 = add nsw i32 %138, 1
  store i32 %139, ptr %137, align 4
  %140 = icmp sge i32 %139, 4
  br i1 %140, label %141, label %150

141:                                              ; preds = %136
  %142 = getelementptr inbounds nuw %class.TransTableL, ptr %12, i32 0, i32 6
  store i32 0, ptr %142, align 4
  %143 = getelementptr inbounds nuw %class.TransTableL, ptr %12, i32 0, i32 5
  %144 = load i32, ptr %143, align 8
  %145 = add nsw i32 %144, -1
  store i32 %145, ptr %143, align 8
  %146 = icmp slt i32 %145, 0
  br i1 %146, label %147, label %149

147:                                              ; preds = %141
  %148 = getelementptr inbounds nuw %class.TransTableL, ptr %12, i32 0, i32 5
  store i32 8, ptr %148, align 8
  br label %149

149:                                              ; preds = %147, %141
  br label %150

150:                                              ; preds = %149, %136
  %151 = getelementptr inbounds nuw %class.TransTableL, ptr %12, i32 0, i32 5
  %152 = load i32, ptr %151, align 8
  %153 = load i32, ptr %7, align 4
  %154 = icmp eq i32 %152, %153
  br i1 %154, label %155, label %161

155:                                              ; preds = %150
  %156 = getelementptr inbounds nuw %class.TransTableL, ptr %12, i32 0, i32 6
  %157 = load i32, ptr %156, align 4
  %158 = load i32, ptr %8, align 4
  %159 = icmp eq i32 %157, %158
  br i1 %159, label %160, label %161

160:                                              ; preds = %155
  store i1 false, ptr %2, align 1
  br label %172

161:                                              ; preds = %155, %150
  %162 = getelementptr inbounds nuw %class.TransTableL, ptr %12, i32 0, i32 9
  %163 = getelementptr inbounds nuw %class.TransTableL, ptr %12, i32 0, i32 5
  %164 = load i32, ptr %163, align 8
  %165 = sext i32 %164 to i64
  %166 = getelementptr inbounds [12 x [4 x ptr]], ptr %162, i64 0, i64 %165
  %167 = getelementptr inbounds nuw %class.TransTableL, ptr %12, i32 0, i32 6
  %168 = load i32, ptr %167, align 4
  %169 = sext i32 %168 to i64
  %170 = getelementptr inbounds [4 x ptr], ptr %166, i64 0, i64 %169
  %171 = load ptr, ptr %170, align 8
  store ptr %171, ptr %4, align 8
  br label %27, !llvm.loop !23

172:                                              ; preds = %160, %120
  %173 = load i1, ptr %2, align 1
  ret i1 %173
}