; Function Attrs: mustprogress nofree norecurse nosync nounwind memory(readwrite, inaccessiblemem: none) uwtable
define noundef zeroext i1 @_ZN11TransTableL7HarvestEv(ptr nocapture noundef nonnull align 8 dereferenceable(664216) %0) local_unnamed_addr #20 align 2 {
  %2 = getelementptr inbounds nuw i8, ptr %0, i64 655416
  %3 = getelementptr inbounds nuw i8, ptr %0, i64 24
  %4 = load i32, ptr %3, align 8
  %5 = sext i32 %4 to i64
  %6 = getelementptr inbounds nuw i8, ptr %0, i64 28
  %7 = load i32, ptr %6, align 4
  %8 = sext i32 %7 to i64
  %9 = getelementptr inbounds [12 x [4 x ptr]], ptr %2, i64 0, i64 %5, i64 %8
  %10 = getelementptr inbounds nuw i8, ptr %0, i64 664208
  %11 = getelementptr inbounds i8, ptr %0, i64 656208
  br label %12

12:                                               ; preds = %71, %1
  %.031.in = phi ptr [ %9, %1 ], [ %74, %71 ]
  %.0 = phi i32 [ 0, %1 ], [ %.2.lcssa, %71 ]
  %.031 = load ptr, ptr %.031.in, align 8
  br label %13

13:                                               ; preds = %12, %._crit_edge
  %indvars.iv47 = phi i64 [ 0, %12 ], [ %indvars.iv.next48, %._crit_edge ]
  %.145 = phi i32 [ %.0, %12 ], [ %.2.lcssa, %._crit_edge ]
  %14 = getelementptr inbounds %"struct.TransTableL::distHashType", ptr %.031, i64 %indvars.iv47
  %15 = load i32, ptr %14, align 8
  %16 = icmp sgt i32 %15, 0
  br i1 %16, label %.lr.ph, label %._crit_edge

.lr.ph:                                           ; preds = %13
  %17 = getelementptr inbounds nuw i8, ptr %14, i64 8
  %18 = getelementptr inbounds nuw i8, ptr %14, i64 4
  %19 = zext nneg i32 %15 to i64
  br label %20

20:                                               ; preds = %.lr.ph, %57
  %indvars.iv = phi i64 [ %19, %.lr.ph ], [ %indvars.iv.next, %57 ]
  %.242 = phi i32 [ %.145, %.lr.ph ], [ %.3, %57 ]
  %indvars.iv.next = add nsw i64 %indvars.iv, -1
  %21 = getelementptr inbounds [32 x %"struct.TransTableL::posSearchType"], ptr %17, i64 0, i64 %indvars.iv.next
  %22 = load ptr, ptr %21, align 8
  %23 = load i32, ptr %10, align 8
  %24 = getelementptr inbounds nuw i8, ptr %22, i64 8
  %25 = load i32, ptr %24, align 4
  %26 = sub nsw i32 %23, %25
  %27 = icmp sgt i32 %26, 10000
  br i1 %27, label %28, label %57

28:                                               ; preds = %20
  store i32 0, ptr %22, align 4
  %29 = getelementptr inbounds nuw i8, ptr %22, i64 4
  store i32 0, ptr %29, align 4
  %30 = load i32, ptr %10, align 8
  store i32 %30, ptr %24, align 4
  %31 = sext i32 %.242 to i64
  %32 = getelementptr inbounds [1000 x ptr], ptr %11, i64 0, i64 %31
  store ptr %22, ptr %32, align 8
  %33 = load i32, ptr %14, align 8
  %34 = zext i32 %33 to i64
  %.not = icmp eq i64 %indvars.iv, %34
  br i1 %.not, label %39, label %35

35:                                               ; preds = %28
  %36 = add nsw i32 %33, -1
  %37 = sext i32 %36 to i64
  %38 = getelementptr inbounds [32 x %"struct.TransTableL::posSearchType"], ptr %17, i64 0, i64 %37
  tail call void @llvm.memcpy.p0.p0.i64(ptr noundef nonnull align 8 dereferenceable(16) %21, ptr noundef nonnull align 8 dereferenceable(16) %38, i64 16, i1 false)
  %.pre = load i32, ptr %14, align 8
  br label %39

39:                                               ; preds = %35, %28
  %40 = phi i32 [ %.pre, %35 ], [ %33, %28 ]
  %41 = add nsw i32 %40, -1
  store i32 %41, ptr %14, align 8
  store i32 %41, ptr %18, align 4
  %42 = add nsw i32 %.242, 1
  %43 = icmp eq i32 %42, 1000
  br i1 %43, label %44, label %57

44:                                               ; preds = %39
  %45 = getelementptr inbounds nuw i8, ptr %0, i64 656200
  %46 = load i32, ptr %6, align 4
  %47 = add nsw i32 %46, 1
  store i32 %47, ptr %6, align 4
  %48 = icmp sgt i32 %46, 2
  br i1 %48, label %49, label %53

49:                                               ; preds = %44
  store i32 0, ptr %6, align 4
  %50 = load i32, ptr %3, align 8
  %51 = add nsw i32 %50, -1
  %52 = icmp slt i32 %50, 1
  %spec.store.select = select i1 %52, i32 8, i32 %51
  store i32 %spec.store.select, ptr %3, align 8
  br label %53

53:                                               ; preds = %49, %44
  store i32 0, ptr %45, align 8
  %54 = getelementptr inbounds i8, ptr %0, i64 44
  %55 = load i32, ptr %54, align 4
  %56 = add nsw i32 %55, 1
  store i32 %56, ptr %54, align 4
  br label %.loopexit

57:                                               ; preds = %20, %39
  %.3 = phi i32 [ %42, %39 ], [ %.242, %20 ]
  %58 = icmp ugt i64 %indvars.iv, 1
  br i1 %58, label %20, label %._crit_edge, !llvm.loop !21

._crit_edge:                                      ; preds = %57, %13
  %.2.lcssa = phi i32 [ %.145, %13 ], [ %.3, %57 ]
  %indvars.iv.next48 = add nuw nsw i64 %indvars.iv47, 1
  %exitcond.not = icmp eq i64 %indvars.iv.next48, 256
  br i1 %exitcond.not, label %59, label %13, !llvm.loop !22

59:                                               ; preds = %._crit_edge
  %60 = load i32, ptr %6, align 4
  %61 = add nsw i32 %60, 1
  store i32 %61, ptr %6, align 4
  %62 = icmp sgt i32 %60, 2
  %.pre50 = load i32, ptr %3, align 8
  br i1 %62, label %63, label %66

63:                                               ; preds = %59
  store i32 0, ptr %6, align 4
  %64 = add nsw i32 %.pre50, -1
  %65 = icmp slt i32 %.pre50, 1
  %spec.store.select34 = select i1 %65, i32 8, i32 %64
  store i32 %spec.store.select34, ptr %3, align 8
  br label %66

66:                                               ; preds = %63, %59
  %67 = phi i32 [ 0, %63 ], [ %61, %59 ]
  %68 = phi i32 [ %spec.store.select34, %63 ], [ %.pre50, %59 ]
  %69 = icmp eq i32 %68, %4
  %70 = icmp eq i32 %67, %7
  %or.cond = select i1 %69, i1 %70, i1 false
  br i1 %or.cond, label %.loopexit, label %71

71:                                               ; preds = %66
  %72 = sext i32 %68 to i64
  %73 = sext i32 %67 to i64
  %74 = getelementptr inbounds [12 x [4 x ptr]], ptr %2, i64 0, i64 %72, i64 %73
  br label %12, !llvm.loop !23

.loopexit:                                        ; preds = %66, %53
  %75 = phi i1 [ true, %53 ], [ false, %66 ]
  ret i1 %75
}